; ModuleID = '40.c'
source_filename = "40.c"
target datalayout = "e-m:e-p270:32:32-p271:32:32-p272:64:64-i64:64-f80:128-n8:16:32:64-S128"
target triple = "x86_64-pc-linux-gnu"

@.str = private unnamed_addr constant [3 x i8] c"%d\00", align 1
@.str.1 = private unnamed_addr constant [4 x i8] c"%d\0A\00", align 1

; Function Attrs: noinline nounwind uwtable
define dso_local void @main() #0 {
  %1 = alloca i32, align 4
  %2 = alloca [6 x i32], align 16
  store i32 0, i32* %1, align 4
  br label %3

3:                                                ; preds = %11, %0
  %4 = load i32, i32* %1, align 4
  %5 = icmp slt i32 %4, 6
  br i1 %5, label %6, label %14

6:                                                ; preds = %3
  %7 = load i32, i32* %1, align 4
  %8 = sext i32 %7 to i64
  %9 = getelementptr inbounds [6 x i32], [6 x i32]* %2, i64 0, i64 %8
  %10 = call i32 (i8*, ...) @__isoc99_scanf(i8* getelementptr inbounds ([3 x i8], [3 x i8]* @.str, i64 0, i64 0), i32* %9)
  br label %11

11:                                               ; preds = %6
  %12 = load i32, i32* %1, align 4
  %13 = add nsw i32 %12, 1
  store i32 %13, i32* %1, align 4
  br label %3

14:                                               ; preds = %3
  store i32 0, i32* %1, align 4
  br label %15

15:                                               ; preds = %25, %14
  %16 = load i32, i32* %1, align 4
  %17 = icmp slt i32 %16, 6
  br i1 %17, label %18, label %28

18:                                               ; preds = %15
  %19 = load i32, i32* %1, align 4
  %20 = sext i32 %19 to i64
  %21 = getelementptr inbounds [6 x i32], [6 x i32]* %2, i64 0, i64 %20
  %22 = load i32, i32* %21, align 4
  %23 = call i32 @reverse(i32 %22)
  %24 = call i32 (i8*, ...) @printf(i8* getelementptr inbounds ([4 x i8], [4 x i8]* @.str.1, i64 0, i64 0), i32 %23)
  br label %25

25:                                               ; preds = %18
  %26 = load i32, i32* %1, align 4
  %27 = add nsw i32 %26, 1
  store i32 %27, i32* %1, align 4
  br label %15

28:                                               ; preds = %15
  ret void
}

declare dso_local i32 @__isoc99_scanf(i8*, ...) #1

declare dso_local i32 @printf(i8*, ...) #1

; Function Attrs: noinline nounwind uwtable
define dso_local i32 @reverse(i32 %0) #0 {
  %2 = alloca i32, align 4
  %3 = alloca i32, align 4
  %4 = alloca i32, align 4
  %5 = alloca [6 x i32], align 16
  %6 = alloca i32, align 4
  %7 = alloca i32, align 4
  %8 = alloca [6 x i32], align 16
  %9 = alloca [6 x i32], align 16
  %10 = alloca i32, align 4
  store i32 %0, i32* %3, align 4
  store i32 0, i32* %10, align 4
  %11 = load i32, i32* %3, align 4
  %12 = icmp sgt i32 %11, 0
  br i1 %12, label %13, label %85

13:                                               ; preds = %1
  %14 = load i32, i32* %3, align 4
  %15 = sitofp i32 %14 to double
  %16 = call double @log10(double %15) #3
  %17 = fadd double %16, 1.000000e+00
  %18 = fptosi double %17 to i32
  store i32 %18, i32* %7, align 4
  %19 = load i32, i32* %3, align 4
  %20 = getelementptr inbounds [6 x i32], [6 x i32]* %5, i64 0, i64 1
  store i32 %19, i32* %20, align 4
  store i32 1, i32* %4, align 4
  br label %21

21:                                               ; preds = %51, %13
  %22 = load i32, i32* %4, align 4
  %23 = load i32, i32* %7, align 4
  %24 = icmp sle i32 %22, %23
  br i1 %24, label %25, label %54

25:                                               ; preds = %21
  %26 = load i32, i32* %7, align 4
  %27 = load i32, i32* %4, align 4
  %28 = sub nsw i32 %26, %27
  %29 = sitofp i32 %28 to double
  %30 = call double @pow(double 1.000000e+01, double %29) #3
  %31 = fptosi double %30 to i32
  store i32 %31, i32* %6, align 4
  %32 = load i32, i32* %4, align 4
  %33 = sext i32 %32 to i64
  %34 = getelementptr inbounds [6 x i32], [6 x i32]* %5, i64 0, i64 %33
  %35 = load i32, i32* %34, align 4
  %36 = load i32, i32* %6, align 4
  %37 = sdiv i32 %35, %36
  %38 = load i32, i32* %4, align 4
  %39 = sext i32 %38 to i64
  %40 = getelementptr inbounds [6 x i32], [6 x i32]* %8, i64 0, i64 %39
  store i32 %37, i32* %40, align 4
  %41 = load i32, i32* %4, align 4
  %42 = sext i32 %41 to i64
  %43 = getelementptr inbounds [6 x i32], [6 x i32]* %5, i64 0, i64 %42
  %44 = load i32, i32* %43, align 4
  %45 = load i32, i32* %6, align 4
  %46 = srem i32 %44, %45
  %47 = load i32, i32* %4, align 4
  %48 = add nsw i32 %47, 1
  %49 = sext i32 %48 to i64
  %50 = getelementptr inbounds [6 x i32], [6 x i32]* %5, i64 0, i64 %49
  store i32 %46, i32* %50, align 4
  br label %51

51:                                               ; preds = %25
  %52 = load i32, i32* %4, align 4
  %53 = add nsw i32 %52, 1
  store i32 %53, i32* %4, align 4
  br label %21

54:                                               ; preds = %21
  store i32 1, i32* %4, align 4
  br label %55

55:                                               ; preds = %80, %54
  %56 = load i32, i32* %4, align 4
  %57 = load i32, i32* %7, align 4
  %58 = icmp sle i32 %56, %57
  br i1 %58, label %59, label %83

59:                                               ; preds = %55
  %60 = load i32, i32* %4, align 4
  %61 = sext i32 %60 to i64
  %62 = getelementptr inbounds [6 x i32], [6 x i32]* %8, i64 0, i64 %61
  %63 = load i32, i32* %62, align 4
  %64 = sitofp i32 %63 to double
  %65 = load i32, i32* %4, align 4
  %66 = sub nsw i32 %65, 1
  %67 = sitofp i32 %66 to double
  %68 = call double @pow(double 1.000000e+01, double %67) #3
  %69 = fmul double %64, %68
  %70 = fptosi double %69 to i32
  %71 = load i32, i32* %4, align 4
  %72 = sext i32 %71 to i64
  %73 = getelementptr inbounds [6 x i32], [6 x i32]* %9, i64 0, i64 %72
  store i32 %70, i32* %73, align 4
  %74 = load i32, i32* %4, align 4
  %75 = sext i32 %74 to i64
  %76 = getelementptr inbounds [6 x i32], [6 x i32]* %9, i64 0, i64 %75
  %77 = load i32, i32* %76, align 4
  %78 = load i32, i32* %10, align 4
  %79 = add nsw i32 %78, %77
  store i32 %79, i32* %10, align 4
  br label %80

80:                                               ; preds = %59
  %81 = load i32, i32* %4, align 4
  %82 = add nsw i32 %81, 1
  store i32 %82, i32* %4, align 4
  br label %55

83:                                               ; preds = %55
  %84 = load i32, i32* %10, align 4
  store i32 %84, i32* %2, align 4
  br label %170

85:                                               ; preds = %1
  %86 = load i32, i32* %3, align 4
  %87 = icmp slt i32 %86, 0
  br i1 %87, label %88, label %163

88:                                               ; preds = %85
  %89 = load i32, i32* %3, align 4
  %90 = mul nsw i32 -1, %89
  store i32 %90, i32* %3, align 4
  %91 = load i32, i32* %3, align 4
  %92 = sitofp i32 %91 to double
  %93 = call double @log10(double %92) #3
  %94 = fadd double %93, 1.000000e+00
  %95 = fptosi double %94 to i32
  store i32 %95, i32* %7, align 4
  %96 = load i32, i32* %3, align 4
  %97 = getelementptr inbounds [6 x i32], [6 x i32]* %5, i64 0, i64 1
  store i32 %96, i32* %97, align 4
  store i32 1, i32* %4, align 4
  br label %98

98:                                               ; preds = %128, %88
  %99 = load i32, i32* %4, align 4
  %100 = load i32, i32* %7, align 4
  %101 = icmp sle i32 %99, %100
  br i1 %101, label %102, label %131

102:                                              ; preds = %98
  %103 = load i32, i32* %7, align 4
  %104 = load i32, i32* %4, align 4
  %105 = sub nsw i32 %103, %104
  %106 = sitofp i32 %105 to double
  %107 = call double @pow(double 1.000000e+01, double %106) #3
  %108 = fptosi double %107 to i32
  store i32 %108, i32* %6, align 4
  %109 = load i32, i32* %4, align 4
  %110 = sext i32 %109 to i64
  %111 = getelementptr inbounds [6 x i32], [6 x i32]* %5, i64 0, i64 %110
  %112 = load i32, i32* %111, align 4
  %113 = load i32, i32* %6, align 4
  %114 = sdiv i32 %112, %113
  %115 = load i32, i32* %4, align 4
  %116 = sext i32 %115 to i64
  %117 = getelementptr inbounds [6 x i32], [6 x i32]* %8, i64 0, i64 %116
  store i32 %114, i32* %117, align 4
  %118 = load i32, i32* %4, align 4
  %119 = sext i32 %118 to i64
  %120 = getelementptr inbounds [6 x i32], [6 x i32]* %5, i64 0, i64 %119
  %121 = load i32, i32* %120, align 4
  %122 = load i32, i32* %6, align 4
  %123 = srem i32 %121, %122
  %124 = load i32, i32* %4, align 4
  %125 = add nsw i32 %124, 1
  %126 = sext i32 %125 to i64
  %127 = getelementptr inbounds [6 x i32], [6 x i32]* %5, i64 0, i64 %126
  store i32 %123, i32* %127, align 4
  br label %128

128:                                              ; preds = %102
  %129 = load i32, i32* %4, align 4
  %130 = add nsw i32 %129, 1
  store i32 %130, i32* %4, align 4
  br label %98

131:                                              ; preds = %98
  store i32 1, i32* %4, align 4
  br label %132

132:                                              ; preds = %157, %131
  %133 = load i32, i32* %4, align 4
  %134 = load i32, i32* %7, align 4
  %135 = icmp sle i32 %133, %134
  br i1 %135, label %136, label %160

136:                                              ; preds = %132
  %137 = load i32, i32* %4, align 4
  %138 = sext i32 %137 to i64
  %139 = getelementptr inbounds [6 x i32], [6 x i32]* %8, i64 0, i64 %138
  %140 = load i32, i32* %139, align 4
  %141 = sitofp i32 %140 to double
  %142 = load i32, i32* %4, align 4
  %143 = sub nsw i32 %142, 1
  %144 = sitofp i32 %143 to double
  %145 = call double @pow(double 1.000000e+01, double %144) #3
  %146 = fmul double %141, %145
  %147 = fptosi double %146 to i32
  %148 = load i32, i32* %4, align 4
  %149 = sext i32 %148 to i64
  %150 = getelementptr inbounds [6 x i32], [6 x i32]* %9, i64 0, i64 %149
  store i32 %147, i32* %150, align 4
  %151 = load i32, i32* %4, align 4
  %152 = sext i32 %151 to i64
  %153 = getelementptr inbounds [6 x i32], [6 x i32]* %9, i64 0, i64 %152
  %154 = load i32, i32* %153, align 4
  %155 = load i32, i32* %10, align 4
  %156 = add nsw i32 %155, %154
  store i32 %156, i32* %10, align 4
  br label %157

157:                                              ; preds = %136
  %158 = load i32, i32* %4, align 4
  %159 = add nsw i32 %158, 1
  store i32 %159, i32* %4, align 4
  br label %132

160:                                              ; preds = %132
  %161 = load i32, i32* %10, align 4
  %162 = sub nsw i32 0, %161
  store i32 %162, i32* %2, align 4
  br label %170

163:                                              ; preds = %85
  %164 = load i32, i32* %3, align 4
  %165 = icmp eq i32 %164, 0
  br i1 %165, label %169, label %166

166:                                              ; preds = %163
  %167 = load i32, i32* %3, align 4
  %168 = icmp eq i32 %167, 0
  br i1 %168, label %169, label %170

169:                                              ; preds = %166, %163
  store i32 0, i32* %2, align 4
  br label %170

170:                                              ; preds = %83, %160, %169, %166
  %171 = load i32, i32* %2, align 4
  ret i32 %171
}

; Function Attrs: nounwind
declare dso_local double @log10(double) #2

; Function Attrs: nounwind
declare dso_local double @pow(double, double) #2


!llvm.module.flags = !{!0}
!llvm.ident = !{!1}

!0 = !{i32 1, !"wchar_size", i32 4}
!1 = !{!"clang version 10.0.0-4ubuntu1 "}
